target datalayout = "e-m:e-p270:32:32-p271:32:32-p272:64:64-i64:64-i128:128-f80:128-n8:16:32:64-S128"
target triple = "x86_64-pc-linux-gnu"

%struct.expert_field = type { i32, i32 }
%struct._packet_info = type { ptr, ptr, i32, i32, %struct.nstime_t, %struct.nstime_t, %struct.nstime_t, i8, ptr, ptr, ptr, ptr, %struct._address, %struct._address, %struct._address, %struct._address, %struct._address, %struct._address, i32, ptr, i8, [3 x i8], %struct.anon, i32, i32, i32, i32, ptr, i8, ptr, ptr, i16, i16, i32, i32, i16, i32, i32, ptr, ptr, ptr, i8, i8, i16, i16, i16, i32, i16, i16, ptr, ptr, ptr, ptr, ptr, i32, i32 }
%struct.nstime_t = type { i64, i32 }
%struct._address = type { i32, i32, ptr, ptr }
%struct.anon = type { i8, [3 x i8] }

@hf_pppoed_tag_credits = internal global i32 0, align 4
@hf_pppoes_tags = internal global i32 0, align 4
@hf_pppoes_tag_credits_fcn = internal global i32 0, align 4
@hf_pppoes_tag_credits_bcn = internal global i32 0, align 4
@ett_pppoes_tags = internal global i32 0, align 4
@.str.119 = private unnamed_addr constant [7 x i8] c"PPPoES\00", align 1
@proto_pppoes = internal global i32 0, align 4
@hf_pppoe_version = internal global i32 0, align 4
@hf_pppoe_type = internal global i32 0, align 4
@hf_pppoe_code = internal global i32 0, align 4
@hf_pppoe_session_id = internal global i32 0, align 4
@hf_pppoe_payload_length = internal global i32 0, align 4
@ett_pppoe = internal global i32 0, align 4
@ei_pppoe_payload_length = internal global %struct.expert_field zeroinitializer, align 4
@ppp_handle = internal global ptr null, align 8
@.str.182 = private unnamed_addr constant [8 x i8] c"Unknown\00", align 1
@.str.195 = private unnamed_addr constant [27 x i8] c" [incorrect, should be %u]\00", align 1
@.str.196 = private unnamed_addr constant [37 x i8] c"Possible bad payload length %u != %u\00", align 1
@.str.197 = private unnamed_addr constant [29 x i8] c"%s:%u: failed assertion \22%s\22\00", align 1
@.str.198 = private unnamed_addr constant [31 x i8] c"epan/dissectors/packet-pppoe.c\00", align 1
@.str.199 = private unnamed_addr constant [12 x i8] c"length >= 0\00", align 1
@.str.200 = private unnamed_addr constant [21 x i8] c"reported_length >= 0\00", align 1

; Function Attrs: null_pointer_is_valid sspstrong uwtable
define internal i32 @dissect_pppoes(ptr noundef %0, ptr noundef %1, ptr noundef %2, ptr noundef %3) #0 {
  %5 = alloca ptr, align 8
  %6 = alloca ptr, align 8
  %7 = alloca ptr, align 8
  %8 = alloca ptr, align 8
  %9 = alloca i8, align 1
  %10 = alloca i16, align 2
  %11 = alloca i16, align 2
  %12 = alloca i32, align 4
  %13 = alloca i32, align 4
  %14 = alloca i32, align 4
  %15 = alloca i32, align 4
  %16 = alloca i32, align 4
  %17 = alloca i16, align 2
  %18 = alloca ptr, align 8
  %19 = alloca ptr, align 8
  %20 = alloca ptr, align 8
  store ptr %0, ptr %5, align 8
  store ptr %1, ptr %6, align 8
  store ptr %2, ptr %7, align 8
  store ptr %3, ptr %8, align 8
  call void @llvm.lifetime.start.p0(i64 1, ptr %9) #4
  call void @llvm.lifetime.start.p0(i64 2, ptr %10) #4
  call void @llvm.lifetime.start.p0(i64 2, ptr %11) #4
  call void @llvm.lifetime.start.p0(i64 4, ptr %12) #4
  call void @llvm.lifetime.start.p0(i64 4, ptr %13) #4
  call void @llvm.lifetime.start.p0(i64 4, ptr %14) #4
  call void @llvm.lifetime.start.p0(i64 4, ptr %15) #4
  store i32 0, ptr %15, align 4
  call void @llvm.lifetime.start.p0(i64 4, ptr %16) #4
  store i32 0, ptr %16, align 4
  call void @llvm.lifetime.start.p0(i64 2, ptr %17) #4
  call void @llvm.lifetime.start.p0(i64 8, ptr %18) #4
  call void @llvm.lifetime.start.p0(i64 8, ptr %19) #4
  store ptr null, ptr %19, align 8
  call void @llvm.lifetime.start.p0(i64 8, ptr %20) #4
  %21 = load ptr, ptr %6, align 8
  %22 = getelementptr inbounds nuw %struct._packet_info, ptr %21, i32 0, i32 1
  %23 = load ptr, ptr %22, align 8
  call void @col_set_str(ptr noundef %23, i32 noundef 35, ptr noundef @.str.119)
  %24 = load ptr, ptr %6, align 8
  %25 = getelementptr inbounds nuw %struct._packet_info, ptr %24, i32 0, i32 1
  %26 = load ptr, ptr %25, align 8
  call void @col_clear(ptr noundef %26, i32 noundef 25)
  %27 = load ptr, ptr %5, align 8
  %28 = call zeroext i8 @tvb_get_uint8(ptr noundef %27, i32 noundef 1)
  store i8 %28, ptr %9, align 1
  %29 = load ptr, ptr %6, align 8
  %30 = getelementptr inbounds nuw %struct._packet_info, ptr %29, i32 0, i32 1
  %31 = load ptr, ptr %30, align 8
  %32 = load i8, ptr %9, align 1
  %33 = zext i8 %32 to i32
  %34 = call ptr @val_to_str_const(i32 noundef %33, ptr noundef @code_vals, ptr noundef @.str.182)
  call void @col_set_str(ptr noundef %31, i32 noundef 25, ptr noundef %34)
  %35 = load ptr, ptr %5, align 8
  %36 = call zeroext i16 @tvb_get_ntohs(ptr noundef %35, i32 noundef 4)
  store i16 %36, ptr %10, align 2
  %37 = load ptr, ptr %5, align 8
  %38 = call i32 @tvb_reported_length_remaining(ptr noundef %37, i32 noundef 6)
  store i32 %38, ptr %12, align 4
  %39 = load ptr, ptr %7, align 8
  %40 = icmp ne ptr %39, null
  br i1 %40, label %41, label %113

41:                                               ; preds = %4
  %42 = load ptr, ptr %7, align 8
  %43 = load i32, ptr @proto_pppoes, align 4
  %44 = load ptr, ptr %5, align 8
  %45 = call ptr @proto_tree_add_item(ptr noundef %42, i32 noundef %43, ptr noundef %44, i32 noundef 0, i32 noundef 6, i32 noundef 0)
  store ptr %45, ptr %19, align 8
  %46 = load ptr, ptr %19, align 8
  %47 = load i32, ptr @ett_pppoe, align 4
  %48 = call ptr @proto_item_add_subtree(ptr noundef %46, i32 noundef %47)
  store ptr %48, ptr %18, align 8
  %49 = load ptr, ptr %18, align 8
  %50 = load i32, ptr @hf_pppoe_version, align 4
  %51 = load ptr, ptr %5, align 8
  %52 = call ptr @proto_tree_add_item(ptr noundef %49, i32 noundef %50, ptr noundef %51, i32 noundef 0, i32 noundef 1, i32 noundef 0)
  %53 = load ptr, ptr %18, align 8
  %54 = load i32, ptr @hf_pppoe_type, align 4
  %55 = load ptr, ptr %5, align 8
  %56 = call ptr @proto_tree_add_item(ptr noundef %53, i32 noundef %54, ptr noundef %55, i32 noundef 0, i32 noundef 1, i32 noundef 0)
  %57 = load ptr, ptr %18, align 8
  %58 = load i32, ptr @hf_pppoe_code, align 4
  %59 = load ptr, ptr %5, align 8
  %60 = call ptr @proto_tree_add_item(ptr noundef %57, i32 noundef %58, ptr noundef %59, i32 noundef 1, i32 noundef 1, i32 noundef 0)
  %61 = load ptr, ptr %18, align 8
  %62 = load i32, ptr @hf_pppoe_session_id, align 4
  %63 = load ptr, ptr %5, align 8
  %64 = call ptr @proto_tree_add_item(ptr noundef %61, i32 noundef %62, ptr noundef %63, i32 noundef 2, i32 noundef 2, i32 noundef 0)
  %65 = load ptr, ptr %18, align 8
  %66 = load i32, ptr @hf_pppoe_payload_length, align 4
  %67 = load ptr, ptr %5, align 8
  %68 = call ptr @proto_tree_add_item(ptr noundef %65, i32 noundef %66, ptr noundef %67, i32 noundef 4, i32 noundef 2, i32 noundef 0)
  store ptr %68, ptr %19, align 8
  %69 = load ptr, ptr %5, align 8
  %70 = call zeroext i16 @tvb_get_ntohs(ptr noundef %69, i32 noundef 6)
  %71 = zext i16 %70 to i32
  %72 = icmp eq i32 262, %71
  br i1 %72, label %73, label %112

73:                                               ; preds = %41
  store i32 6, ptr %16, align 4
  %74 = load ptr, ptr %5, align 8
  %75 = load i32, ptr %16, align 4
  %76 = add i32 %75, 2
  %77 = call zeroext i16 @tvb_get_ntohs(ptr noundef %74, i32 noundef %76)
  store i16 %77, ptr %11, align 2
  %78 = load ptr, ptr %18, align 8
  %79 = load i32, ptr @hf_pppoes_tags, align 4
  %80 = load ptr, ptr %5, align 8
  %81 = load i32, ptr %16, align 4
  %82 = call ptr @proto_tree_add_item(ptr noundef %78, i32 noundef %79, ptr noundef %80, i32 noundef %81, i32 noundef 8, i32 noundef 0)
  store ptr %82, ptr %19, align 8
  %83 = load ptr, ptr %19, align 8
  %84 = load i32, ptr @ett_pppoes_tags, align 4
  %85 = call ptr @proto_item_add_subtree(ptr noundef %83, i32 noundef %84)
  store ptr %85, ptr %18, align 8
  %86 = load i16, ptr %11, align 2
  %87 = zext i16 %86 to i32
  %88 = icmp eq i32 %87, 4
  br i1 %88, label %89, label %102

89:                                               ; preds = %73
  %90 = load ptr, ptr %18, align 8
  %91 = load i32, ptr @hf_pppoes_tag_credits_fcn, align 4
  %92 = load ptr, ptr %5, align 8
  %93 = load i32, ptr %16, align 4
  %94 = add i32 %93, 4
  %95 = call ptr @proto_tree_add_item(ptr noundef %90, i32 noundef %91, ptr noundef %92, i32 noundef %94, i32 noundef 2, i32 noundef 0)
  %96 = load ptr, ptr %18, align 8
  %97 = load i32, ptr @hf_pppoes_tag_credits_bcn, align 4
  %98 = load ptr, ptr %5, align 8
  %99 = load i32, ptr %16, align 4
  %100 = add i32 %99, 6
  %101 = call ptr @proto_tree_add_item(ptr noundef %96, i32 noundef %97, ptr noundef %98, i32 noundef %100, i32 noundef 2, i32 noundef 0)
  br label %111

102:                                              ; preds = %73
  %103 = load ptr, ptr %18, align 8
  %104 = load i32, ptr @hf_pppoed_tag_credits, align 4
  %105 = load ptr, ptr %5, align 8
  %106 = load i32, ptr %16, align 4
  %107 = add i32 %106, 4
  %108 = load i16, ptr %11, align 2
  %109 = zext i16 %108 to i32
  %110 = call ptr @proto_tree_add_item(ptr noundef %103, i32 noundef %104, ptr noundef %105, i32 noundef %107, i32 noundef %109, i32 noundef 0)
  br label %111

111:                                              ; preds = %102, %89
  store i32 8, ptr %15, align 4
  br label %112

112:                                              ; preds = %111, %41
  br label %113

113:                                              ; preds = %112, %4
  %114 = load ptr, ptr %5, align 8
  %115 = call i32 @tvb_reported_length(ptr noundef %114)
  %116 = icmp ugt i32 %115, 46
  br i1 %116, label %117, label %152

117:                                              ; preds = %113
  %118 = load ptr, ptr %5, align 8
  %119 = call zeroext i16 @tvb_get_ntohs(ptr noundef %118, i32 noundef 6)
  store i16 %119, ptr %17, align 2
  %120 = load i16, ptr %17, align 2
  %121 = zext i16 %120 to i32
  %122 = icmp ne i32 %121, 49185
  br i1 %122, label %123, label %151

123:                                              ; preds = %117
  %124 = load i16, ptr %17, align 2
  %125 = zext i16 %124 to i32
  %126 = icmp ne i32 %125, 32801
  br i1 %126, label %127, label %151

127:                                              ; preds = %123
  %128 = load i16, ptr %17, align 2
  %129 = zext i16 %128 to i32
  %130 = icmp ne i32 %129, 32855
  br i1 %130, label %131, label %151

131:                                              ; preds = %127
  %132 = load i16, ptr %10, align 2
  %133 = zext i16 %132 to i32
  %134 = load i32, ptr %12, align 4
  %135 = icmp ne i32 %133, %134
  br i1 %135, label %136, label %151

136:                                              ; preds = %131
  %137 = load i16, ptr %10, align 2
  %138 = zext i16 %137 to i32
  %139 = add i32 %138, 4
  %140 = load i32, ptr %12, align 4
  %141 = icmp ne i32 %139, %140
  br i1 %141, label %142, label %151

142:                                              ; preds = %136
  %143 = load ptr, ptr %19, align 8
  %144 = load i32, ptr %12, align 4
  call void (ptr, ptr, ...) @proto_item_append_text(ptr noundef %143, ptr noundef @.str.195, i32 noundef %144)
  %145 = load ptr, ptr %6, align 8
  %146 = load ptr, ptr %19, align 8
  %147 = load i16, ptr %10, align 2
  %148 = zext i16 %147 to i32
  %149 = load i32, ptr %12, align 4
  %150 = call ptr (ptr, ptr, ptr, ptr, ...) @expert_add_info_format(ptr noundef %145, ptr noundef %146, ptr noundef @ei_pppoe_payload_length, ptr noundef @.str.196, i32 noundef %148, i32 noundef %149)
  br label %151

151:                                              ; preds = %142, %136, %131, %127, %123, %117
  br label %152

152:                                              ; preds = %151, %113
  %153 = load ptr, ptr %5, align 8
  %154 = call i32 @tvb_captured_length_remaining(ptr noundef %153, i32 noundef 6)
  store i32 %154, ptr %13, align 4
  %155 = load ptr, ptr %5, align 8
  %156 = call i32 @tvb_reported_length_remaining(ptr noundef %155, i32 noundef 6)
  store i32 %156, ptr %14, align 4
  %157 = load i32, ptr %13, align 4
  %158 = icmp sge i32 %157, 0
  br i1 %158, label %159, label %160

159:                                              ; preds = %152
  br label %162

160:                                              ; preds = %152
  call void (ptr, ...) @proto_report_dissector_bug(ptr noundef @.str.197, ptr noundef @.str.198, i32 noundef 1170, ptr noundef @.str.199) #5
  unreachable

161:                                              ; No predecessors!
  br label %162

162:                                              ; preds = %161, %159
  %163 = load i32, ptr %14, align 4
  %164 = icmp sge i32 %163, 0
  br i1 %164, label %165, label %166

165:                                              ; preds = %162
  br label %168

166:                                              ; preds = %162
  call void (ptr, ...) @proto_report_dissector_bug(ptr noundef @.str.197, ptr noundef @.str.198, i32 noundef 1171, ptr noundef @.str.200) #5
  unreachable

167:                                              ; No predecessors!
  br label %168

168:                                              ; preds = %167, %165
  %169 = load i32, ptr %13, align 4
  %170 = load i32, ptr %14, align 4
  %171 = icmp sgt i32 %169, %170
  br i1 %171, label %172, label %174

172:                                              ; preds = %168
  %173 = load i32, ptr %14, align 4
  store i32 %173, ptr %13, align 4
  br label %174

174:                                              ; preds = %172, %168
  %175 = load i32, ptr %13, align 4
  %176 = load i16, ptr %10, align 2
  %177 = zext i16 %176 to i32
  %178 = icmp ugt i32 %175, %177
  br i1 %178, label %179, label %182

179:                                              ; preds = %174
  %180 = load i16, ptr %10, align 2
  %181 = zext i16 %180 to i32
  store i32 %181, ptr %13, align 4
  br label %182

182:                                              ; preds = %179, %174
  %183 = load i32, ptr %14, align 4
  %184 = load i16, ptr %10, align 2
  %185 = zext i16 %184 to i32
  %186 = icmp ugt i32 %183, %185
  br i1 %186, label %187, label %190

187:                                              ; preds = %182
  %188 = load i16, ptr %10, align 2
  %189 = zext i16 %188 to i32
  store i32 %189, ptr %14, align 4
  br label %190

190:                                              ; preds = %187, %182
  %191 = load ptr, ptr %5, align 8
  %192 = load i32, ptr %15, align 4
  %193 = add i32 6, %192
  %194 = load i32, ptr %13, align 4
  %195 = load i32, ptr %15, align 4
  %196 = sub i32 %194, %195
  %197 = load i32, ptr %14, align 4
  %198 = load i32, ptr %15, align 4
  %199 = sub i32 %197, %198
  %200 = call ptr @tvb_new_subset_length_caplen(ptr noundef %191, i32 noundef %193, i32 noundef %196, i32 noundef %199)
  store ptr %200, ptr %20, align 8
  %201 = load ptr, ptr @ppp_handle, align 8
  %202 = load ptr, ptr %20, align 8
  %203 = load ptr, ptr %6, align 8
  %204 = load ptr, ptr %7, align 8
  %205 = call i32 @call_dissector(ptr noundef %201, ptr noundef %202, ptr noundef %203, ptr noundef %204)
  %206 = load ptr, ptr %5, align 8
  %207 = call i32 @tvb_captured_length(ptr noundef %206)
  call void @llvm.lifetime.end.p0(i64 8, ptr %20) #4
  call void @llvm.lifetime.end.p0(i64 8, ptr %19) #4
  call void @llvm.lifetime.end.p0(i64 8, ptr %18) #4
  call void @llvm.lifetime.end.p0(i64 2, ptr %17) #4
  call void @llvm.lifetime.end.p0(i64 4, ptr %16) #4
  call void @llvm.lifetime.end.p0(i64 4, ptr %15) #4
  call void @llvm.lifetime.end.p0(i64 4, ptr %14) #4
  call void @llvm.lifetime.end.p0(i64 4, ptr %13) #4
  call void @llvm.lifetime.end.p0(i64 4, ptr %12) #4
  call void @llvm.lifetime.end.p0(i64 2, ptr %11) #4
  call void @llvm.lifetime.end.p0(i64 2, ptr %10) #4
  call void @llvm.lifetime.end.p0(i64 1, ptr %9) #4
  ret i32 %207
}