; Function Attrs: null_pointer_is_valid sspstrong uwtable
define internal i32 @dissect_pppoes(ptr noundef %0, ptr noundef %1, ptr noundef %2, ptr readnone captures(none) %3) #0 {
  %5 = getelementptr inbounds nuw i8, ptr %1, i64 8
  %6 = load ptr, ptr %5, align 8
  tail call void @col_set_str(ptr noundef %6, i32 noundef 35, ptr noundef nonnull @.str.119)
  %7 = load ptr, ptr %5, align 8
  tail call void @col_clear(ptr noundef %7, i32 noundef 25)
  %8 = tail call zeroext i8 @tvb_get_uint8(ptr noundef %0, i32 noundef 1)
  %9 = load ptr, ptr %5, align 8
  %10 = zext i8 %8 to i32
  %11 = tail call ptr @val_to_str_const(i32 noundef %10, ptr noundef nonnull @code_vals, ptr noundef nonnull @.str.182)
  tail call void @col_set_str(ptr noundef %9, i32 noundef 25, ptr noundef %11)
  %12 = tail call zeroext i16 @tvb_get_ntohs(ptr noundef %0, i32 noundef 4)
  %13 = tail call i32 @tvb_reported_length_remaining(ptr noundef %0, i32 noundef 6)
  %.not = icmp eq ptr %2, null
  br i1 %.not, label %47, label %14

14:                                               ; preds = %4
  %15 = load i32, ptr @proto_pppoes, align 4
  %16 = tail call ptr @proto_tree_add_item(ptr noundef nonnull %2, i32 noundef %15, ptr noundef %0, i32 noundef 0, i32 noundef 6, i32 noundef 0)
  %17 = load i32, ptr @ett_pppoe, align 4
  %18 = tail call ptr @proto_item_add_subtree(ptr noundef %16, i32 noundef %17)
  %19 = load i32, ptr @hf_pppoe_version, align 4
  %20 = tail call ptr @proto_tree_add_item(ptr noundef %18, i32 noundef %19, ptr noundef %0, i32 noundef 0, i32 noundef 1, i32 noundef 0)
  %21 = load i32, ptr @hf_pppoe_type, align 4
  %22 = tail call ptr @proto_tree_add_item(ptr noundef %18, i32 noundef %21, ptr noundef %0, i32 noundef 0, i32 noundef 1, i32 noundef 0)
  %23 = load i32, ptr @hf_pppoe_code, align 4
  %24 = tail call ptr @proto_tree_add_item(ptr noundef %18, i32 noundef %23, ptr noundef %0, i32 noundef 1, i32 noundef 1, i32 noundef 0)
  %25 = load i32, ptr @hf_pppoe_session_id, align 4
  %26 = tail call ptr @proto_tree_add_item(ptr noundef %18, i32 noundef %25, ptr noundef %0, i32 noundef 2, i32 noundef 2, i32 noundef 0)
  %27 = load i32, ptr @hf_pppoe_payload_length, align 4
  %28 = tail call ptr @proto_tree_add_item(ptr noundef %18, i32 noundef %27, ptr noundef %0, i32 noundef 4, i32 noundef 2, i32 noundef 0)
  %29 = tail call zeroext i16 @tvb_get_ntohs(ptr noundef %0, i32 noundef 6)
  %30 = icmp eq i16 %29, 262
  br i1 %30, label %31, label %47

31:                                               ; preds = %14
  %32 = tail call zeroext i16 @tvb_get_ntohs(ptr noundef %0, i32 noundef 8)
  %33 = load i32, ptr @hf_pppoes_tags, align 4
  %34 = tail call ptr @proto_tree_add_item(ptr noundef %18, i32 noundef %33, ptr noundef %0, i32 noundef 6, i32 noundef 8, i32 noundef 0)
  %35 = load i32, ptr @ett_pppoes_tags, align 4
  %36 = tail call ptr @proto_item_add_subtree(ptr noundef %34, i32 noundef %35)
  %37 = icmp eq i16 %32, 4
  br i1 %37, label %38, label %43

38:                                               ; preds = %31
  %39 = load i32, ptr @hf_pppoes_tag_credits_fcn, align 4
  %40 = tail call ptr @proto_tree_add_item(ptr noundef %36, i32 noundef %39, ptr noundef %0, i32 noundef 10, i32 noundef 2, i32 noundef 0)
  %41 = load i32, ptr @hf_pppoes_tag_credits_bcn, align 4
  %42 = tail call ptr @proto_tree_add_item(ptr noundef %36, i32 noundef %41, ptr noundef %0, i32 noundef 12, i32 noundef 2, i32 noundef 0)
  br label %47

43:                                               ; preds = %31
  %44 = zext i16 %32 to i32
  %45 = load i32, ptr @hf_pppoed_tag_credits, align 4
  %46 = tail call ptr @proto_tree_add_item(ptr noundef %36, i32 noundef %45, ptr noundef %0, i32 noundef 10, i32 noundef %44, i32 noundef 0)
  br label %47

47:                                               ; preds = %38, %43, %14, %4
  %.083 = phi i32 [ 0, %14 ], [ 0, %4 ], [ 8, %43 ], [ 8, %38 ]
  %.081 = phi ptr [ %28, %14 ], [ null, %4 ], [ %34, %43 ], [ %34, %38 ]
  %48 = tail call i32 @tvb_reported_length(ptr noundef %0)
  %49 = icmp ugt i32 %48, 46
  br i1 %49, label %50, label %57

50:                                               ; preds = %47
  %51 = tail call zeroext i16 @tvb_get_ntohs(ptr noundef %0, i32 noundef 6)
  switch i16 %51, label %52 [
    i16 -16351, label %57
    i16 -32681, label %57
    i16 -32735, label %57
  ]

52:                                               ; preds = %50
  %53 = zext i16 %12 to i32
  %.not92 = icmp eq i32 %13, %53
  %54 = add nuw nsw i32 %53, 4
  %.not93 = icmp eq i32 %54, %13
  %or.cond = select i1 %.not92, i1 true, i1 %.not93
  br i1 %or.cond, label %57, label %55

55:                                               ; preds = %52
  tail call void (ptr, ptr, ...) @proto_item_append_text(ptr noundef %.081, ptr noundef nonnull @.str.195, i32 noundef %13)
  %56 = tail call ptr (ptr, ptr, ptr, ptr, ...) @expert_add_info_format(ptr noundef %1, ptr noundef %.081, ptr noundef nonnull @ei_pppoe_payload_length, ptr noundef nonnull @.str.196, i32 noundef %53, i32 noundef %13)
  br label %57

57:                                               ; preds = %50, %50, %50, %52, %55, %47
  %58 = tail call i32 @tvb_captured_length_remaining(ptr noundef %0, i32 noundef 6)
  %59 = tail call i32 @tvb_reported_length_remaining(ptr noundef %0, i32 noundef 6)
  %60 = icmp sgt i32 %58, -1
  br i1 %60, label %62, label %61

61:                                               ; preds = %57
  tail call void (ptr, ...) @proto_report_dissector_bug(ptr noundef nonnull @.str.197, ptr noundef nonnull @.str.198, i32 noundef 1170, ptr noundef nonnull @.str.199) #6
  unreachable

62:                                               ; preds = %57
  %63 = icmp sgt i32 %59, -1
  br i1 %63, label %65, label %64

64:                                               ; preds = %62
  tail call void (ptr, ...) @proto_report_dissector_bug(ptr noundef nonnull @.str.197, ptr noundef nonnull @.str.198, i32 noundef 1171, ptr noundef nonnull @.str.200) #6
  unreachable

65:                                               ; preds = %62
  %spec.select = tail call i32 @llvm.umin.i32(i32 %58, i32 %59)
  %66 = zext i16 %12 to i32
  %.1 = tail call i32 @llvm.umin.i32(i32 %spec.select, i32 %66)
  %.082 = tail call i32 @llvm.umin.i32(i32 %59, i32 %66)
  %67 = or disjoint i32 %.083, 6
  %68 = sub nsw i32 %.1, %.083
  %69 = sub nsw i32 %.082, %.083
  %70 = tail call ptr @tvb_new_subset_length_caplen(ptr noundef %0, i32 noundef %67, i32 noundef %68, i32 noundef %69)
  %71 = load ptr, ptr @ppp_handle, align 8
  %72 = tail call i32 @call_dissector(ptr noundef %71, ptr noundef %70, ptr noundef %1, ptr noundef %2)
  %73 = tail call i32 @tvb_captured_length(ptr noundef %0)
  ret i32 %73
}